; Function Attrs: mustprogress nofree norecurse nosync nounwind willreturn memory(argmem: readwrite) uwtable
define internal nonnull ptr @Pack3BytesAndSkip1Swap(ptr nocapture readnone %0, ptr nocapture noundef readonly %1, ptr noundef writeonly %2, i32 %3) #3 {
  %5 = getelementptr inbounds i8, ptr %2, i64 1
  %6 = getelementptr inbounds i8, ptr %1, i64 4
  %7 = load i16, ptr %6, align 2
  %8 = zext i16 %7 to i32
  %9 = mul nuw i32 %8, 65281
  %10 = add nuw i32 %9, 8388608
  %11 = lshr i32 %10, 24
  %12 = trunc nuw i32 %11 to i8
  %13 = getelementptr inbounds i8, ptr %2, i64 2
  store i8 %12, ptr %5, align 1
  %14 = getelementptr inbounds i8, ptr %1, i64 2
  %15 = load i16, ptr %14, align 2
  %16 = zext i16 %15 to i32
  %17 = mul nuw i32 %16, 65281
  %18 = add nuw i32 %17, 8388608
  %19 = lshr i32 %18, 24
  %20 = trunc nuw i32 %19 to i8
  %21 = getelementptr inbounds i8, ptr %2, i64 3
  store i8 %20, ptr %13, align 1
  %22 = load i16, ptr %1, align 2
  %23 = zext i16 %22 to i32
  %24 = mul nuw i32 %23, 65281
  %25 = add nuw i32 %24, 8388608
  %26 = lshr i32 %25, 24
  %27 = trunc nuw i32 %26 to i8
  %28 = getelementptr inbounds i8, ptr %2, i64 4
  store i8 %27, ptr %21, align 1
  ret ptr %28
}